; ModuleID = '44/1212.c'
source_filename = "44/1212.c"
target datalayout = "e-m:e-p270:32:32-p271:32:32-p272:64:64-i64:64-f80:128-n8:16:32:64-S128"
target triple = "x86_64-pc-linux-gnu"

@.str = private unnamed_addr constant [3 x i8] c"%d\00", align 1
@.str.1 = private unnamed_addr constant [4 x i8] c"%d\0A\00", align 1

; Function Attrs: noinline nounwind uwtable
define dso_local void @main() #0 {
  %1 = alloca i32, align 4
  store i32 0, i32* %1, align 4
  %2 = call i32 (i8*, ...) @__isoc99_scanf(i8* getelementptr inbounds ([3 x i8], [3 x i8]* @.str, i64 0, i64 0), i32* %1)
  %3 = load i32, i32* %1, align 4
  %4 = call i32 @reverse(i32 %3)
  %5 = call i32 (i8*, ...) @printf(i8* getelementptr inbounds ([4 x i8], [4 x i8]* @.str.1, i64 0, i64 0), i32 %4)
  %6 = call i32 (i8*, ...) @__isoc99_scanf(i8* getelementptr inbounds ([3 x i8], [3 x i8]* @.str, i64 0, i64 0), i32* %1)
  %7 = load i32, i32* %1, align 4
  %8 = call i32 @reverse(i32 %7)
  %9 = call i32 (i8*, ...) @printf(i8* getelementptr inbounds ([4 x i8], [4 x i8]* @.str.1, i64 0, i64 0), i32 %8)
  %10 = call i32 (i8*, ...) @__isoc99_scanf(i8* getelementptr inbounds ([3 x i8], [3 x i8]* @.str, i64 0, i64 0), i32* %1)
  %11 = load i32, i32* %1, align 4
  %12 = call i32 @reverse(i32 %11)
  %13 = call i32 (i8*, ...) @printf(i8* getelementptr inbounds ([4 x i8], [4 x i8]* @.str.1, i64 0, i64 0), i32 %12)
  %14 = call i32 (i8*, ...) @__isoc99_scanf(i8* getelementptr inbounds ([3 x i8], [3 x i8]* @.str, i64 0, i64 0), i32* %1)
  %15 = load i32, i32* %1, align 4
  %16 = call i32 @reverse(i32 %15)
  %17 = call i32 (i8*, ...) @printf(i8* getelementptr inbounds ([4 x i8], [4 x i8]* @.str.1, i64 0, i64 0), i32 %16)
  %18 = call i32 (i8*, ...) @__isoc99_scanf(i8* getelementptr inbounds ([3 x i8], [3 x i8]* @.str, i64 0, i64 0), i32* %1)
  %19 = load i32, i32* %1, align 4
  %20 = call i32 @reverse(i32 %19)
  %21 = call i32 (i8*, ...) @printf(i8* getelementptr inbounds ([4 x i8], [4 x i8]* @.str.1, i64 0, i64 0), i32 %20)
  %22 = call i32 (i8*, ...) @__isoc99_scanf(i8* getelementptr inbounds ([3 x i8], [3 x i8]* @.str, i64 0, i64 0), i32* %1)
  %23 = load i32, i32* %1, align 4
  %24 = call i32 @reverse(i32 %23)
  %25 = call i32 (i8*, ...) @printf(i8* getelementptr inbounds ([4 x i8], [4 x i8]* @.str.1, i64 0, i64 0), i32 %24)
  ret void
}

declare dso_local i32 @__isoc99_scanf(i8*, ...) #1

declare dso_local i32 @printf(i8*, ...) #1

; Function Attrs: noinline nounwind uwtable
define dso_local i32 @reverse(i32 %0) #0 {
  %2 = alloca i32, align 4
  %3 = alloca i32, align 4
  %4 = alloca i32, align 4
  store i32 %0, i32* %2, align 4
  store i32 0, i32* %3, align 4
  store i32 0, i32* %4, align 4
  %5 = load i32, i32* %2, align 4
  %6 = icmp eq i32 %5, 0
  br i1 %6, label %7, label %8

7:                                                ; preds = %1
  store i32 0, i32* %3, align 4
  br label %36

8:                                                ; preds = %1
  %9 = load i32, i32* %2, align 4
  %10 = load i32, i32* %2, align 4
  %11 = call i32 @abs(i32 %10) #3
  %12 = sdiv i32 %9, %11
  switch i32 %12, label %29 [
    i32 -1, label %13
    i32 1, label %16
  ]

13:                                               ; preds = %8
  %14 = load i32, i32* %2, align 4
  %15 = mul nsw i32 %14, -1
  store i32 %15, i32* %2, align 4
  store i32 1, i32* %4, align 4
  br label %16

16:                                               ; preds = %8, %13
  br label %17

17:                                               ; preds = %20, %16
  %18 = load i32, i32* %2, align 4
  %19 = icmp ne i32 %18, 0
  br i1 %19, label %20, label %28

20:                                               ; preds = %17
  %21 = load i32, i32* %3, align 4
  %22 = mul nsw i32 %21, 10
  %23 = load i32, i32* %2, align 4
  %24 = srem i32 %23, 10
  %25 = add nsw i32 %22, %24
  store i32 %25, i32* %3, align 4
  %26 = load i32, i32* %2, align 4
  %27 = sdiv i32 %26, 10
  store i32 %27, i32* %2, align 4
  br label %17

28:                                               ; preds = %17
  br label %29

29:                                               ; preds = %28, %8
  %30 = load i32, i32* %4, align 4
  %31 = icmp eq i32 %30, 1
  br i1 %31, label %32, label %35

32:                                               ; preds = %29
  %33 = load i32, i32* %3, align 4
  %34 = mul nsw i32 %33, -1
  store i32 %34, i32* %3, align 4
  br label %35

35:                                               ; preds = %32, %29
  br label %36

36:                                               ; preds = %35, %7
  %37 = load i32, i32* %3, align 4
  ret i32 %37
}

; Function Attrs: nounwind readnone
declare dso_local i32 @abs(i32) #2


!llvm.module.flags = !{!0}
!llvm.ident = !{!1}

!0 = !{i32 1, !"wchar_size", i32 4}
!1 = !{!"clang version 10.0.0-4ubuntu1 "}
